Certificate:
    Data:
        Version: 3 (0x2)
        Serial Number: 4098 (0x1002)
    Signature Algorithm: sha1WithRSAEncryption
        Issuer: C=CH, ST=Vaud, L=Lausanne, O=EPFL, OU=smartgrid, CN=RootCA_Cert
        Validity
            Not Before: Mar 12 15:07:31 2015 GMT
            Not After : Mar 11 15:07:31 2016 GMT
        Subject: C=CH, ST=Vaud, O=EPFL, OU=smartgrid, CN=Alice_Cert
        Subject Public Key Info:
            Public Key Algorithm: rsaEncryption
                Public-Key: (2048 bit)
                Modulus:
                    00:c5:8e:2b:ef:e1:13:4d:9e:d9:20:24:6e:06:a3:
                    3c:c5:fd:f2:4a:f3:f9:19:9a:5d:2a:41:14:75:e0:
                    04:75:64:ce:d5:33:8a:a5:f9:9b:97:5a:b2:c1:7b:
                    0c:ab:32:cd:48:c4:f4:39:d8:3d:29:52:9a:da:81:
                    dd:03:61:ff:07:49:a3:bd:31:67:13:71:3f:24:c7:
                    a0:75:5b:17:f6:9c:c5:b5:9d:ee:f7:fd:c4:5e:97:
                    75:6b:85:f3:d3:f7:8f:24:b0:90:ac:47:b1:6d:ba:
                    09:34:c5:e7:1c:fb:ef:70:d3:e1:3c:f6:3c:82:f6:
                    4a:89:42:49:db:4a:df:80:5f:72:d5:37:c7:32:2e:
                    6d:0d:46:99:e7:09:2a:66:1c:c3:2b:d8:56:87:e2:
                    ff:5f:b0:41:d0:06:4d:36:ef:9c:2c:52:fa:ae:a0:
                    72:ab:f3:fd:d5:d4:02:80:e2:b3:d2:e2:88:1b:a0:
                    53:ff:ab:e9:5a:5c:db:d4:4e:29:ed:3a:ba:ae:47:
                    5c:61:60:3e:7e:f5:ff:1c:d9:f7:5c:f7:34:50:22:
                    12:72:c0:9b:2e:6c:58:e0:37:74:1b:84:a4:a5:c9:
                    d7:97:ce:b5:22:ae:55:bd:f0:5b:2e:1c:a5:1e:04:
                    25:ff:68:0d:2d:d4:43:2c:5b:72:75:c9:e0:f2:97:
                    af:f9
                Exponent: 65537 (0x10001)
        X509v3 extensions:
            X509v3 Basic Constraints: 
                CA:FALSE
            Netscape Comment: 
                OpenSSL Generated Certificate
            X509v3 Subject Key Identifier: 
                24:14:D6:5A:8D:B5:01:B2:8F:DA:B6:BA:F0:F6:0A:8C:B4:1B:00:CC
            X509v3 Authority Key Identifier: 
                keyid:A4:D3:06:76:5B:9C:63:E5:A2:6A:A8:B7:20:BF:67:A8:94:01:1F:7A

    Signature Algorithm: sha1WithRSAEncryption
         28:f9:a3:c7:76:27:df:20:36:85:77:58:38:76:7a:89:e0:f4:
         c1:3b:02:fb:9b:36:75:6a:d9:74:42:9d:4d:ac:d9:18:11:ef:
         eb:51:d0:e6:21:ff:62:15:bd:ba:df:65:cb:1e:91:00:18:fc:
         00:c6:b1:73:3d:8f:f1:cd:ea:1d:a2:66:18:02:ea:6e:63:17:
         27:50:9e:5b:74:38:24:bd:9e:0a:4f:a2:4d:d4:f2:de:5e:36:
         3c:14:b4:56:f1:29:12:0a:fc:72:11:31:ea:7b:4c:ca:48:72:
         ea:a8:76:41:ee:c5:17:c4:ba:6d:9a:a5:e7:77:60:b6:3e:bb:
         38:87:f1:d9:7d:8d:58:6e:a2:62:8f:81:56:6b:fd:d5:f2:af:
         28:4f:c1:d5:1b:24:ca:5b:8e:e1:45:e4:f2:9f:6e:9a:c1:cd:
         a2:a0:fd:a0:8e:86:f7:d2:2a:02:ae:d2:75:86:9d:66:c0:4a:
         29:6d:f8:b7:61:40:cd:da:27:bb:68:4f:5b:93:04:94:e4:f6:
         3f:63:32:67:2e:2a:ff:d8:85:70:ff:3f:17:11:e3:eb:bd:48:
         d3:80:b1:d0:49:e2:23:52:02:bc:16:76:f7:4c:09:4b:23:84:
         3f:df:02:b4:63:20:c5:87:df:a3:16:68:f2:82:94:11:6b:0b:
         6e:d4:30:aa
-----BEGIN CERTIFICATE-----
MIIDszCCApugAwIBAgICEAIwDQYJKoZIhvcNAQEFBQAwaDELMAkGA1UEBhMCQ0gx
DTALBgNVBAgMBFZhdWQxETAPBgNVBAcMCExhdXNhbm5lMQ0wCwYDVQQKDARFUEZM
MRIwEAYDVQQLDAlzbWFydGdyaWQxFDASBgNVBAMMC1Jvb3RDQV9DZXJ0MB4XDTE1
MDMxMjE1MDczMVoXDTE2MDMxMTE1MDczMVowVDELMAkGA1UEBhMCQ0gxDTALBgNV
BAgMBFZhdWQxDTALBgNVBAoMBEVQRkwxEjAQBgNVBAsMCXNtYXJ0Z3JpZDETMBEG
A1UEAwwKQWxpY2VfQ2VydDCCASIwDQYJKoZIhvcNAQEBBQADggEPADCCAQoCggEB
AMWOK+/hE02e2SAkbgajPMX98krz+RmaXSpBFHXgBHVkztUziqX5m5dassF7DKsy
zUjE9DnYPSlSmtqB3QNh/wdJo70xZxNxPyTHoHVbF/acxbWd7vf9xF6XdWuF89P3
jySwkKxHsW26CTTF5xz773DT4Tz2PIL2SolCSdtK34BfctU3xzIubQ1GmecJKmYc
wyvYVofi/1+wQdAGTTbvnCxS+q6gcqvz/dXUAoDis9LiiBugU/+r6Vpc29ROKe06
uq5HXGFgPn71/xzZ91z3NFAiEnLAmy5sWOA3dBuEpKXJ15fOtSKuVb3wWy4cpR4E
Jf9oDS3UQyxbcnXJ4PKXr/kCAwEAAaN7MHkwCQYDVR0TBAIwADAsBglghkgBhvhC
AQ0EHxYdT3BlblNTTCBHZW5lcmF0ZWQgQ2VydGlmaWNhdGUwHQYDVR0OBBYEFCQU
1lqNtQGyj9q2uvD2Coy0GwDMMB8GA1UdIwQYMBaAFKTTBnZbnGPlomqotyC/Z6iU
AR96MA0GCSqGSIb3DQEBBQUAA4IBAQAo+aPHdiffIDaFd1g4dnqJ4PTBOwL7mzZ1
atl0Qp1NrNkYEe/rUdDmIf9iFb2632XLHpEAGPwAxrFzPY/xzeodomYYAupuYxcn
UJ5bdDgkvZ4KT6JN1PLeXjY8FLRW8SkSCvxyETHqe0zKSHLqqHZB7sUXxLptmqXn
d2C2Prs4h/HZfY1YbqJij4FWa/3V8q8oT8HVGyTKW47hReTyn26awc2ioP2gjob3
0ioCrtJ1hp1mwEopbfi3YUDN2ie7aE9bkwSU5PY/YzJnLir/2IVw/z8XEePrvUjT
gLHQSeIjUgK8Fnb3TAlLI4Q/3wK0YyDFh9+jFmjygpQRawtu1DCq
-----END CERTIFICATE-----
